Archive member included to satisfy reference by file (symbol)

c:/program files (x86)/gnu tools arm embedded/5.4 2016q3/bin/../lib/gcc/arm-none-eabi/5.4.1/armv7-m\libgcc.a(_arm_muldivdf3.o)
                              ..\obj\DDS.o (__aeabi_dmul)
c:/program files (x86)/gnu tools arm embedded/5.4 2016q3/bin/../lib/gcc/arm-none-eabi/5.4.1/armv7-m\libgcc.a(_arm_fixunsdfsi.o)
                              ..\obj\DDS.o (__aeabi_d2uiz)

Allocating common symbols
Common symbol       size              file

GPIO_Config_port_mux
                    0x4               ..\obj\main.o
ADC_CH_STATE        0x1               ..\obj\main.o
XW8_250_09_16       0x120             ..\obj\main.o
CHANAL              0x24              ..\obj\main.o
config_out          0x8               ..\obj\DDS.o
array_chek          0x288             ..\obj\main.o
type_test_signal    0x1               ..\obj\main.o
address             0x4               ..\obj\main.o
counter_receive     0x4               ..\obj\main.o
PORT_CHANAL         0x48              ..\obj\main.o
numb_bits           0x1               ..\obj\main.o
counter_chanall     0x1               ..\obj\main.o
address_fragment    0x1               ..\obj\main.o
adc_level_add       0x2               ..\obj\main.o
options             0x10              ..\obj\main.o
ADC_InitStructure   0x14              ..\obj\main.o
packing_data_array  0x6               ..\obj\stm32f10x_tim.o
matrix_for_validation
                    0x1               ..\obj\main.o
source_clk          0x1               ..\obj\main.o
PORT_ADC            0x48              ..\obj\main.o
DATA_READ           0x1               ..\obj\main.o
adc_chek            0x288             ..\obj\main.o
number_of_channels  0x1               ..\obj\main.o
HSE_ON              0x1               ..\obj\main.o
mode_combo_number   0x1               ..\obj\main.o
address_column      0x1               ..\obj\main.o
RCC_value           0x14              ..\obj\main.o
GPIO_Config_port_out
                    0x4               ..\obj\main.o
GPIO_Config_port_in
                    0x4               ..\obj\main.o
USART3_buffer       0x3e8             ..\obj\main.o
number_repetitions_regime_open
                    0x1               ..\obj\main.o
ADC_CHANALL         0xb               ..\obj\main.o
array_error         0x288             ..\obj\main.o
type_data_UART      0x4               ..\obj\stm32f10x_tim.o
pin_null            0x1               ..\obj\main.o
ADC_CHANALL_PIN     0x16              ..\obj\main.o
set_option_push     0x1               ..\obj\main.o
counter_array_chek  0x1               ..\obj\main.o
delay_value         0x4               ..\obj\startup_stm32f10x_md.o
PLL_ON              0x1               ..\obj\main.o

Discarded input sections

 .text          0x00000000        0x0 ..\obj\stm32f10x_tim.o
 .data          0x00000000        0x0 ..\obj\stm32f10x_tim.o
 .bss           0x00000000        0x0 ..\obj\stm32f10x_tim.o
 .text.TIM_DeInit
                0x00000000      0x22c ..\obj\stm32f10x_tim.o
 .text.TIM_TimeBaseInit
                0x00000000       0xf8 ..\obj\stm32f10x_tim.o
 .text.TIM_OC1Init
                0x00000000      0x118 ..\obj\stm32f10x_tim.o
 .text.TIM_OC2Init
                0x00000000      0x110 ..\obj\stm32f10x_tim.o
 .text.TIM_OC3Init
                0x00000000      0x10c ..\obj\stm32f10x_tim.o
 .text.TIM_OC4Init
                0x00000000       0xd0 ..\obj\stm32f10x_tim.o
 .text.TIM_ICInit
                0x00000000       0xa8 ..\obj\stm32f10x_tim.o
 .text.TIM_PWMIConfig
                0x00000000       0xb8 ..\obj\stm32f10x_tim.o
 .text.TIM_BDTRConfig
                0x00000000       0x50 ..\obj\stm32f10x_tim.o
 .text.TIM_TimeBaseStructInit
                0x00000000       0x34 ..\obj\stm32f10x_tim.o
 .text.TIM_OCStructInit
                0x00000000       0x44 ..\obj\stm32f10x_tim.o
 .text.TIM_ICStructInit
                0x00000000       0x30 ..\obj\stm32f10x_tim.o
 .text.TIM_BDTRStructInit
                0x00000000       0x3c ..\obj\stm32f10x_tim.o
 .text.TIM_Cmd  0x00000000       0x40 ..\obj\stm32f10x_tim.o
 .text.TIM_CtrlPWMOutputs
                0x00000000       0x4c ..\obj\stm32f10x_tim.o
 .text.TIM_ITConfig
                0x00000000       0x48 ..\obj\stm32f10x_tim.o
 .text.TIM_GenerateEvent
                0x00000000       0x1c ..\obj\stm32f10x_tim.o
 .text.TIM_DMAConfig
                0x00000000       0x28 ..\obj\stm32f10x_tim.o
 .text.TIM_DMACmd
                0x00000000       0x48 ..\obj\stm32f10x_tim.o
 .text.TIM_InternalClockConfig
                0x00000000       0x24 ..\obj\stm32f10x_tim.o
 .text.TIM_ITRxExternalClockConfig
                0x00000000       0x30 ..\obj\stm32f10x_tim.o
 .text.TIM_TIxExternalClockConfig
                0x00000000       0x5c ..\obj\stm32f10x_tim.o
 .text.TIM_ETRClockMode1Config
                0x00000000       0x60 ..\obj\stm32f10x_tim.o
 .text.TIM_ETRClockMode2Config
                0x00000000       0x40 ..\obj\stm32f10x_tim.o
 .text.TIM_ETRConfig
                0x00000000       0x54 ..\obj\stm32f10x_tim.o
 .text.TIM_PrescalerConfig
                0x00000000       0x28 ..\obj\stm32f10x_tim.o
 .text.TIM_CounterModeConfig
                0x00000000       0x38 ..\obj\stm32f10x_tim.o
 .text.TIM_SelectInputTrigger
                0x00000000       0x38 ..\obj\stm32f10x_tim.o
 .text.TIM_EncoderInterfaceConfig
                0x00000000       0x98 ..\obj\stm32f10x_tim.o
 .text.TIM_ForcedOC1Config
                0x00000000       0x38 ..\obj\stm32f10x_tim.o
 .text.TIM_ForcedOC2Config
                0x00000000       0x3c ..\obj\stm32f10x_tim.o
 .text.TIM_ForcedOC3Config
                0x00000000       0x38 ..\obj\stm32f10x_tim.o
 .text.TIM_ForcedOC4Config
                0x00000000       0x3c ..\obj\stm32f10x_tim.o
 .text.TIM_ARRPreloadConfig
                0x00000000       0x40 ..\obj\stm32f10x_tim.o
 .text.TIM_SelectCOM
                0x00000000       0x40 ..\obj\stm32f10x_tim.o
 .text.TIM_SelectCCDMA
                0x00000000       0x40 ..\obj\stm32f10x_tim.o
 .text.TIM_CCPreloadControl
                0x00000000       0x40 ..\obj\stm32f10x_tim.o
 .text.TIM_OC1PreloadConfig
                0x00000000       0x38 ..\obj\stm32f10x_tim.o
 .text.TIM_OC2PreloadConfig
                0x00000000       0x3c ..\obj\stm32f10x_tim.o
 .text.TIM_OC3PreloadConfig
                0x00000000       0x38 ..\obj\stm32f10x_tim.o
 .text.TIM_OC4PreloadConfig
                0x00000000       0x3c ..\obj\stm32f10x_tim.o
 .text.TIM_OC1FastConfig
                0x00000000       0x38 ..\obj\stm32f10x_tim.o
 .text.TIM_OC2FastConfig
                0x00000000       0x3c ..\obj\stm32f10x_tim.o
 .text.TIM_OC3FastConfig
                0x00000000       0x38 ..\obj\stm32f10x_tim.o
 .text.TIM_OC4FastConfig
                0x00000000       0x3c ..\obj\stm32f10x_tim.o
 .text.TIM_ClearOC1Ref
                0x00000000       0x38 ..\obj\stm32f10x_tim.o
 .text.TIM_ClearOC2Ref
                0x00000000       0x3c ..\obj\stm32f10x_tim.o
 .text.TIM_ClearOC3Ref
                0x00000000       0x38 ..\obj\stm32f10x_tim.o
 .text.TIM_ClearOC4Ref
                0x00000000       0x3c ..\obj\stm32f10x_tim.o
 .text.TIM_OC1PolarityConfig
                0x00000000       0x38 ..\obj\stm32f10x_tim.o
 .text.TIM_OC1NPolarityConfig
                0x00000000       0x38 ..\obj\stm32f10x_tim.o
 .text.TIM_OC2PolarityConfig
                0x00000000       0x3c ..\obj\stm32f10x_tim.o
 .text.TIM_OC2NPolarityConfig
                0x00000000       0x3c ..\obj\stm32f10x_tim.o
 .text.TIM_OC3PolarityConfig
                0x00000000       0x3c ..\obj\stm32f10x_tim.o
 .text.TIM_OC3NPolarityConfig
                0x00000000       0x3c ..\obj\stm32f10x_tim.o
 .text.TIM_OC4PolarityConfig
                0x00000000       0x3c ..\obj\stm32f10x_tim.o
 .text.TIM_CCxCmd
                0x00000000       0x54 ..\obj\stm32f10x_tim.o
 .text.TIM_CCxNCmd
                0x00000000       0x54 ..\obj\stm32f10x_tim.o
 .text.TIM_SelectOCxM
                0x00000000       0xac ..\obj\stm32f10x_tim.o
 .text.TIM_UpdateDisableConfig
                0x00000000       0x40 ..\obj\stm32f10x_tim.o
 .text.TIM_UpdateRequestConfig
                0x00000000       0x40 ..\obj\stm32f10x_tim.o
 .text.TIM_SelectHallSensor
                0x00000000       0x40 ..\obj\stm32f10x_tim.o
 .text.TIM_SelectOnePulseMode
                0x00000000       0x38 ..\obj\stm32f10x_tim.o
 .text.TIM_SelectOutputTrigger
                0x00000000       0x38 ..\obj\stm32f10x_tim.o
 .text.TIM_SelectSlaveMode
                0x00000000       0x38 ..\obj\stm32f10x_tim.o
 .text.TIM_SelectMasterSlaveMode
                0x00000000       0x38 ..\obj\stm32f10x_tim.o
 .text.TIM_SetCounter
                0x00000000       0x1c ..\obj\stm32f10x_tim.o
 .text.TIM_SetAutoreload
                0x00000000       0x1c ..\obj\stm32f10x_tim.o
 .text.TIM_SetCompare1
                0x00000000       0x1c ..\obj\stm32f10x_tim.o
 .text.TIM_SetCompare2
                0x00000000       0x1c ..\obj\stm32f10x_tim.o
 .text.TIM_SetCompare3
                0x00000000       0x1c ..\obj\stm32f10x_tim.o
 .text.TIM_SetCompare4
                0x00000000       0x20 ..\obj\stm32f10x_tim.o
 .text.TIM_SetIC1Prescaler
                0x00000000       0x38 ..\obj\stm32f10x_tim.o
 .text.TIM_SetIC2Prescaler
                0x00000000       0x3c ..\obj\stm32f10x_tim.o
 .text.TIM_SetIC3Prescaler
                0x00000000       0x38 ..\obj\stm32f10x_tim.o
 .text.TIM_SetIC4Prescaler
                0x00000000       0x3c ..\obj\stm32f10x_tim.o
 .text.TIM_SetClockDivision
                0x00000000       0x38 ..\obj\stm32f10x_tim.o
 .text.TIM_GetCapture1
                0x00000000       0x18 ..\obj\stm32f10x_tim.o
 .text.TIM_GetCapture2
                0x00000000       0x18 ..\obj\stm32f10x_tim.o
 .text.TIM_GetCapture3
                0x00000000       0x18 ..\obj\stm32f10x_tim.o
 .text.TIM_GetCapture4
                0x00000000       0x1c ..\obj\stm32f10x_tim.o
 .text.TIM_GetCounter
                0x00000000       0x18 ..\obj\stm32f10x_tim.o
 .text.TIM_GetPrescaler
                0x00000000       0x18 ..\obj\stm32f10x_tim.o
 .text.TIM_GetFlagStatus
                0x00000000       0x38 ..\obj\stm32f10x_tim.o
 .text.TIM_ClearFlag
                0x00000000       0x20 ..\obj\stm32f10x_tim.o
 .text.TIM_GetITStatus
                0x00000000       0x54 ..\obj\stm32f10x_tim.o
 .text.TIM_ClearITPendingBit
                0x00000000       0x20 ..\obj\stm32f10x_tim.o
 .text.TI1_Config
                0x00000000       0xe0 ..\obj\stm32f10x_tim.o
 .text.TI2_Config
                0x00000000       0xf4 ..\obj\stm32f10x_tim.o
 .text.TI3_Config
                0x00000000       0xec ..\obj\stm32f10x_tim.o
 .text.TI4_Config
                0x00000000       0xf8 ..\obj\stm32f10x_tim.o
 .debug_info    0x00000000     0x1cbc ..\obj\stm32f10x_tim.o
 .debug_abbrev  0x00000000      0x1e4 ..\obj\stm32f10x_tim.o
 .debug_aranges
                0x00000000      0x2f0 ..\obj\stm32f10x_tim.o
 .debug_ranges  0x00000000      0x2e0 ..\obj\stm32f10x_tim.o
 .debug_line    0x00000000      0xb41 ..\obj\stm32f10x_tim.o
 .debug_str     0x00000000      0xe25 ..\obj\stm32f10x_tim.o
 .comment       0x00000000       0x6f ..\obj\stm32f10x_tim.o
 .debug_frame   0x00000000      0xe2c ..\obj\stm32f10x_tim.o
 .ARM.attributes
                0x00000000       0x33 ..\obj\stm32f10x_tim.o
 COMMON         0x00000000        0xc ..\obj\stm32f10x_tim.o
 .text          0x00000000        0x0 ..\obj\system_stm32f10x.o
 .data          0x00000000       0x14 ..\obj\system_stm32f10x.o
 .bss           0x00000000        0x0 ..\obj\system_stm32f10x.o
 .text.SystemCoreClockUpdate
                0x00000000       0xd8 ..\obj\system_stm32f10x.o
 .text          0x00000000        0x0 ..\obj\hd44780_driver.o
 .data          0x00000000        0x0 ..\obj\hd44780_driver.o
 .bss           0x00000000        0x0 ..\obj\hd44780_driver.o
 .text.lcd_set_user_char
                0x00000000       0x58 ..\obj\hd44780_driver.o
 .text          0x00000000        0x0 ..\obj\startup_stm32f10x_md.o
 .data          0x00000000        0x0 ..\obj\startup_stm32f10x_md.o
 .bss           0x00000000        0x0 ..\obj\startup_stm32f10x_md.o
 .text          0x00000000        0x0 ..\obj\stm32f10x_gpio.o
 .data          0x00000000        0x0 ..\obj\stm32f10x_gpio.o
 .bss           0x00000000        0x0 ..\obj\stm32f10x_gpio.o
 .text.GPIO_DeInit
                0x00000000       0xe4 ..\obj\stm32f10x_gpio.o
 .text.GPIO_AFIODeInit
                0x00000000       0x18 ..\obj\stm32f10x_gpio.o
 .text.GPIO_StructInit
                0x00000000       0x28 ..\obj\stm32f10x_gpio.o
 .text.GPIO_ReadInputData
                0x00000000       0x18 ..\obj\stm32f10x_gpio.o
 .text.GPIO_ReadOutputDataBit
                0x00000000       0x34 ..\obj\stm32f10x_gpio.o
 .text.GPIO_ReadOutputData
                0x00000000       0x18 ..\obj\stm32f10x_gpio.o
 .text.GPIO_SetBits
                0x00000000       0x1c ..\obj\stm32f10x_gpio.o
 .text.GPIO_ResetBits
                0x00000000       0x1c ..\obj\stm32f10x_gpio.o
 .text.GPIO_WriteBit
                0x00000000       0x30 ..\obj\stm32f10x_gpio.o
 .text.GPIO_Write
                0x00000000       0x1c ..\obj\stm32f10x_gpio.o
 .text.GPIO_PinLockConfig
                0x00000000       0x44 ..\obj\stm32f10x_gpio.o
 .text.GPIO_EventOutputConfig
                0x00000000       0x4c ..\obj\stm32f10x_gpio.o
 .text.GPIO_EventOutputCmd
                0x00000000       0x20 ..\obj\stm32f10x_gpio.o
 .text.GPIO_PinRemapConfig
                0x00000000       0xe0 ..\obj\stm32f10x_gpio.o
 .text.GPIO_EXTILineConfig
                0x00000000       0x84 ..\obj\stm32f10x_gpio.o
 .text.GPIO_ETH_MediaInterfaceConfig
                0x00000000       0x1c ..\obj\stm32f10x_gpio.o
 .text          0x00000000        0x0 ..\obj\main.o
 .data          0x00000000        0x0 ..\obj\main.o
 .bss           0x00000000        0x0 ..\obj\main.o
 .text.UART_Config
                0x00000000       0x78 ..\obj\main.o
 .text          0x00000000        0x0 ..\obj\stm32f10x_rcc.o
 .bss           0x00000000        0x0 ..\obj\stm32f10x_rcc.o
 .text.RCC_AdjustHSICalibrationValue
                0x00000000       0x3c ..\obj\stm32f10x_rcc.o
 .text.RCC_HSICmd
                0x00000000       0x20 ..\obj\stm32f10x_rcc.o
 .text.RCC_ITConfig
                0x00000000       0x4c ..\obj\stm32f10x_rcc.o
 .text.RCC_USBCLKConfig
                0x00000000       0x1c ..\obj\stm32f10x_rcc.o
 .text.RCC_LSEConfig
                0x00000000       0x40 ..\obj\stm32f10x_rcc.o
 .text.RCC_LSICmd
                0x00000000       0x20 ..\obj\stm32f10x_rcc.o
 .text.RCC_RTCCLKConfig
                0x00000000       0x24 ..\obj\stm32f10x_rcc.o
 .text.RCC_RTCCLKCmd
                0x00000000       0x20 ..\obj\stm32f10x_rcc.o
 .text.RCC_AHBPeriphClockCmd
                0x00000000       0x3c ..\obj\stm32f10x_rcc.o
 .text.RCC_APB1PeriphClockCmd
                0x00000000       0x3c ..\obj\stm32f10x_rcc.o
 .text.RCC_APB2PeriphResetCmd
                0x00000000       0x3c ..\obj\stm32f10x_rcc.o
 .text.RCC_APB1PeriphResetCmd
                0x00000000       0x3c ..\obj\stm32f10x_rcc.o
 .text.RCC_BackupResetCmd
                0x00000000       0x20 ..\obj\stm32f10x_rcc.o
 .text.RCC_MCOConfig
                0x00000000       0x20 ..\obj\stm32f10x_rcc.o
 .text.RCC_ClearFlag
                0x00000000       0x1c ..\obj\stm32f10x_rcc.o
 .text.RCC_GetITStatus
                0x00000000       0x34 ..\obj\stm32f10x_rcc.o
 .text.RCC_ClearITPendingBit
                0x00000000       0x20 ..\obj\stm32f10x_rcc.o
 .text          0x00000000        0x0 ..\obj\DDS.o
 .data          0x00000000        0x0 ..\obj\DDS.o
 .bss           0x00000000        0x0 ..\obj\DDS.o
 .text.calc_registr
                0x00000000       0x54 ..\obj\DDS.o
 .text.send_data_parallel
                0x00000000       0x28 ..\obj\DDS.o
 .debug_info    0x00000000      0x1ed ..\obj\DDS.o
 .debug_abbrev  0x00000000      0x10f ..\obj\DDS.o
 .debug_aranges
                0x00000000       0x28 ..\obj\DDS.o
 .debug_ranges  0x00000000       0x18 ..\obj\DDS.o
 .debug_line    0x00000000      0x1b5 ..\obj\DDS.o
 .debug_str     0x00000000      0x257 ..\obj\DDS.o
 .comment       0x00000000       0x6f ..\obj\DDS.o
 .debug_frame   0x00000000       0x60 ..\obj\DDS.o
 .ARM.attributes
                0x00000000       0x33 ..\obj\DDS.o
 COMMON         0x00000000        0x8 ..\obj\DDS.o
 .text          0x00000000        0x0 ..\obj\stm32f10x_adc.o
 .data          0x00000000        0x0 ..\obj\stm32f10x_adc.o
 .bss           0x00000000        0x0 ..\obj\stm32f10x_adc.o
 .text.ADC_DeInit
                0x00000000       0x74 ..\obj\stm32f10x_adc.o
 .text.ADC_DMACmd
                0x00000000       0x38 ..\obj\stm32f10x_adc.o
 .text.ADC_ITConfig
                0x00000000       0x44 ..\obj\stm32f10x_adc.o
 .text.ADC_SoftwareStartConvCmd
                0x00000000       0x38 ..\obj\stm32f10x_adc.o
 .text.ADC_GetSoftwareStartConvStatus
                0x00000000       0x30 ..\obj\stm32f10x_adc.o
 .text.ADC_DiscModeChannelCountConfig
                0x00000000       0x44 ..\obj\stm32f10x_adc.o
 .text.ADC_DiscModeCmd
                0x00000000       0x38 ..\obj\stm32f10x_adc.o
 .text.ADC_ExternalTrigConvCmd
                0x00000000       0x38 ..\obj\stm32f10x_adc.o
 .text.ADC_GetConversionValue
                0x00000000       0x18 ..\obj\stm32f10x_adc.o
 .text.ADC_GetDualModeConversionValue
                0x00000000       0x14 ..\obj\stm32f10x_adc.o
 .text.ADC_AutoInjectedConvCmd
                0x00000000       0x38 ..\obj\stm32f10x_adc.o
 .text.ADC_InjectedDiscModeCmd
                0x00000000       0x38 ..\obj\stm32f10x_adc.o
 .text.ADC_ExternalTrigInjectedConvConfig
                0x00000000       0x34 ..\obj\stm32f10x_adc.o
 .text.ADC_ExternalTrigInjectedConvCmd
                0x00000000       0x38 ..\obj\stm32f10x_adc.o
 .text.ADC_SoftwareStartInjectedConvCmd
                0x00000000       0x38 ..\obj\stm32f10x_adc.o
 .text.ADC_GetSoftwareStartInjectedConvCmdStatus
                0x00000000       0x30 ..\obj\stm32f10x_adc.o
 .text.ADC_InjectedChannelConfig
                0x00000000      0x120 ..\obj\stm32f10x_adc.o
 .text.ADC_InjectedSequencerLengthConfig
                0x00000000       0x44 ..\obj\stm32f10x_adc.o
 .text.ADC_SetInjectedOffset
                0x00000000       0x34 ..\obj\stm32f10x_adc.o
 .text.ADC_GetInjectedConversionValue
                0x00000000       0x30 ..\obj\stm32f10x_adc.o
 .text.ADC_AnalogWatchdogCmd
                0x00000000       0x38 ..\obj\stm32f10x_adc.o
 .text.ADC_AnalogWatchdogThresholdsConfig
                0x00000000       0x28 ..\obj\stm32f10x_adc.o
 .text.ADC_AnalogWatchdogSingleChannelConfig
                0x00000000       0x38 ..\obj\stm32f10x_adc.o
 .text.ADC_TempSensorVrefintCmd
                0x00000000       0x38 ..\obj\stm32f10x_adc.o
 .text.ADC_GetFlagStatus
                0x00000000       0x34 ..\obj\stm32f10x_adc.o
 .text.ADC_ClearFlag
                0x00000000       0x20 ..\obj\stm32f10x_adc.o
 .text.ADC_GetITStatus
                0x00000000       0x54 ..\obj\stm32f10x_adc.o
 .text.ADC_ClearITPendingBit
                0x00000000       0x2c ..\obj\stm32f10x_adc.o
 .text          0x00000000        0x0 ..\obj\stm32f10x_usart.o
 .data          0x00000000        0x0 ..\obj\stm32f10x_usart.o
 .bss           0x00000000        0x0 ..\obj\stm32f10x_usart.o
 .text.USART_DeInit
                0x00000000       0xb8 ..\obj\stm32f10x_usart.o
 .text.USART_Init
                0x00000000      0x174 ..\obj\stm32f10x_usart.o
 .text.USART_StructInit
                0x00000000       0x38 ..\obj\stm32f10x_usart.o
 .text.USART_ClockInit
                0x00000000       0x58 ..\obj\stm32f10x_usart.o
 .text.USART_ClockStructInit
                0x00000000       0x2c ..\obj\stm32f10x_usart.o
 .text.USART_Cmd
                0x00000000       0x40 ..\obj\stm32f10x_usart.o
 .text.USART_ITConfig
                0x00000000       0x90 ..\obj\stm32f10x_usart.o
 .text.USART_DMACmd
                0x00000000       0x48 ..\obj\stm32f10x_usart.o
 .text.USART_SetAddress
                0x00000000       0x38 ..\obj\stm32f10x_usart.o
 .text.USART_WakeUpConfig
                0x00000000       0x38 ..\obj\stm32f10x_usart.o
 .text.USART_ReceiverWakeUpCmd
                0x00000000       0x40 ..\obj\stm32f10x_usart.o
 .text.USART_LINBreakDetectLengthConfig
                0x00000000       0x38 ..\obj\stm32f10x_usart.o
 .text.USART_LINCmd
                0x00000000       0x40 ..\obj\stm32f10x_usart.o
 .text.USART_SendData
                0x00000000       0x24 ..\obj\stm32f10x_usart.o
 .text.USART_ReceiveData
                0x00000000       0x20 ..\obj\stm32f10x_usart.o
 .text.USART_SendBreak
                0x00000000       0x24 ..\obj\stm32f10x_usart.o
 .text.USART_SetGuardTime
                0x00000000       0x3c ..\obj\stm32f10x_usart.o
 .text.USART_SetPrescaler
                0x00000000       0x38 ..\obj\stm32f10x_usart.o
 .text.USART_SmartCardCmd
                0x00000000       0x40 ..\obj\stm32f10x_usart.o
 .text.USART_SmartCardNACKCmd
                0x00000000       0x40 ..\obj\stm32f10x_usart.o
 .text.USART_HalfDuplexCmd
                0x00000000       0x40 ..\obj\stm32f10x_usart.o
 .text.USART_OverSampling8Cmd
                0x00000000       0x44 ..\obj\stm32f10x_usart.o
 .text.USART_OneBitMethodCmd
                0x00000000       0x40 ..\obj\stm32f10x_usart.o
 .text.USART_IrDAConfig
                0x00000000       0x38 ..\obj\stm32f10x_usart.o
 .text.USART_IrDACmd
                0x00000000       0x40 ..\obj\stm32f10x_usart.o
 .text.USART_GetFlagStatus
                0x00000000       0x38 ..\obj\stm32f10x_usart.o
 .text.USART_ClearFlag
                0x00000000       0x20 ..\obj\stm32f10x_usart.o
 .text.USART_GetITStatus
                0x00000000       0xb4 ..\obj\stm32f10x_usart.o
 .text.USART_ClearITPendingBit
                0x00000000       0x38 ..\obj\stm32f10x_usart.o
 .text.send_data_packet_UART
                0x00000000       0x4c ..\obj\stm32f10x_usart.o
 .text.packing_data
                0x00000000       0x34 ..\obj\stm32f10x_usart.o
 .text.TypeData_Init
                0x00000000       0x1c ..\obj\stm32f10x_usart.o
 .text.send_Uart_str
                0x00000000       0x2c ..\obj\stm32f10x_usart.o
 .text.send_Uart
                0x00000000       0x30 ..\obj\stm32f10x_usart.o
 .debug_info    0x00000000      0xb72 ..\obj\stm32f10x_usart.o
 .debug_abbrev  0x00000000      0x1e8 ..\obj\stm32f10x_usart.o
 .debug_aranges
                0x00000000      0x128 ..\obj\stm32f10x_usart.o
 .debug_ranges  0x00000000      0x118 ..\obj\stm32f10x_usart.o
 .debug_line    0x00000000      0x50d ..\obj\stm32f10x_usart.o
 .debug_str     0x00000000      0x75d ..\obj\stm32f10x_usart.o
 .comment       0x00000000       0x6f ..\obj\stm32f10x_usart.o
 .debug_frame   0x00000000      0x544 ..\obj\stm32f10x_usart.o
 .ARM.attributes
                0x00000000       0x33 ..\obj\stm32f10x_usart.o
 .text          0x00000000        0x0 ..\obj\menu.o
 .data          0x00000000        0x0 ..\obj\menu.o
 .bss           0x00000000        0x0 ..\obj\menu.o
 .text          0x00000000        0x0 ..\obj\mode.o
 .data          0x00000000        0x0 ..\obj\mode.o
 .bss           0x00000000        0x1 ..\obj\mode.o
 .text.config_chanal_arm
                0x00000000      0x1a0 ..\obj\mode.o
 .text          0x00000000        0x0 ..\obj\syscalls.o
 .data          0x00000000        0x0 ..\obj\syscalls.o
 .bss           0x00000000        0x4 ..\obj\syscalls.o
 .text._sbrk    0x00000000       0x3c ..\obj\syscalls.o
 .text.link     0x00000000       0x18 ..\obj\syscalls.o
 .text._close   0x00000000       0x18 ..\obj\syscalls.o
 .text._fstat   0x00000000       0x20 ..\obj\syscalls.o
 .text._isatty  0x00000000       0x14 ..\obj\syscalls.o
 .text._lseek   0x00000000       0x18 ..\obj\syscalls.o
 .text._read    0x00000000       0x18 ..\obj\syscalls.o
 .text._write   0x00000000       0x18 ..\obj\syscalls.o
 .text.abort    0x00000000        0x8 ..\obj\syscalls.o
 .debug_info    0x00000000      0x458 ..\obj\syscalls.o
 .debug_abbrev  0x00000000       0xe5 ..\obj\syscalls.o
 .debug_aranges
                0x00000000       0x60 ..\obj\syscalls.o
 .debug_ranges  0x00000000       0x50 ..\obj\syscalls.o
 .debug_line    0x00000000      0x1e4 ..\obj\syscalls.o
 .debug_str     0x00000000      0x322 ..\obj\syscalls.o
 .comment       0x00000000       0x6f ..\obj\syscalls.o
 .debug_frame   0x00000000      0x168 ..\obj\syscalls.o
 .ARM.attributes
                0x00000000       0x33 ..\obj\syscalls.o
 .text          0x00000000        0x0 ..\obj\delay_.o
 .data          0x00000000        0x0 ..\obj\delay_.o
 .bss           0x00000000        0x0 ..\obj\delay_.o
 .text          0x00000000        0x0 ..\obj\match.o
 .data          0x00000000        0x0 ..\obj\match.o
 .bss           0x00000000        0x0 ..\obj\match.o
 .text.exponentiation
                0x00000000       0x48 ..\obj\match.o
 .debug_info    0x00000000       0x69 ..\obj\match.o
 .debug_abbrev  0x00000000       0x57 ..\obj\match.o
 .debug_aranges
                0x00000000       0x20 ..\obj\match.o
 .debug_ranges  0x00000000       0x10 ..\obj\match.o
 .debug_line    0x00000000       0x65 ..\obj\match.o
 .debug_str     0x00000000       0xba ..\obj\match.o
 .comment       0x00000000       0x6f ..\obj\match.o
 .debug_frame   0x00000000       0x38 ..\obj\match.o
 .ARM.attributes
                0x00000000       0x33 ..\obj\match.o
 .text          0x00000000        0x0 ..\obj\misc.o
 .data          0x00000000        0x0 ..\obj\misc.o
 .bss           0x00000000        0x0 ..\obj\misc.o
 .text.NVIC_PriorityGroupConfig
                0x00000000       0x24 ..\obj\misc.o
 .text.NVIC_Init
                0x00000000       0xc4 ..\obj\misc.o
 .text.NVIC_SetVectorTable
                0x00000000       0x2c ..\obj\misc.o
 .text.NVIC_SystemLPConfig
                0x00000000       0x40 ..\obj\misc.o
 .text.SysTick_CLKSourceConfig
                0x00000000       0x38 ..\obj\misc.o
 .debug_info    0x00000000      0x5c8 ..\obj\misc.o
 .debug_abbrev  0x00000000      0x167 ..\obj\misc.o
 .debug_aranges
                0x00000000       0x40 ..\obj\misc.o
 .debug_ranges  0x00000000       0x30 ..\obj\misc.o
 .debug_line    0x00000000      0x234 ..\obj\misc.o
 .debug_str     0x00000000      0x41a ..\obj\misc.o
 .comment       0x00000000       0x6f ..\obj\misc.o
 .debug_frame   0x00000000       0xd8 ..\obj\misc.o
 .ARM.attributes
                0x00000000       0x33 ..\obj\misc.o
 .text          0x00000000        0x0 ..\obj\stm32f10x_spi.o
 .data          0x00000000        0x0 ..\obj\stm32f10x_spi.o
 .bss           0x00000000        0x0 ..\obj\stm32f10x_spi.o
 .text.SPI_I2S_DeInit
                0x00000000       0x74 ..\obj\stm32f10x_spi.o
 .text.SPI_Init
                0x00000000       0x88 ..\obj\stm32f10x_spi.o
 .text.I2S_Init
                0x00000000      0x168 ..\obj\stm32f10x_spi.o
 .text.SPI_StructInit
                0x00000000       0x48 ..\obj\stm32f10x_spi.o
 .text.I2S_StructInit
                0x00000000       0x38 ..\obj\stm32f10x_spi.o
 .text.SPI_Cmd  0x00000000       0x40 ..\obj\stm32f10x_spi.o
 .text.I2S_Cmd  0x00000000       0x40 ..\obj\stm32f10x_spi.o
 .text.SPI_I2S_ITConfig
                0x00000000       0x60 ..\obj\stm32f10x_spi.o
 .text.SPI_I2S_DMACmd
                0x00000000       0x48 ..\obj\stm32f10x_spi.o
 .text.SPI_I2S_SendData
                0x00000000       0x1c ..\obj\stm32f10x_spi.o
 .text.SPI_I2S_ReceiveData
                0x00000000       0x18 ..\obj\stm32f10x_spi.o
 .text.SPI_NSSInternalSoftwareConfig
                0x00000000       0x44 ..\obj\stm32f10x_spi.o
 .text.SPI_SSOutputCmd
                0x00000000       0x40 ..\obj\stm32f10x_spi.o
 .text.SPI_DataSizeConfig
                0x00000000       0x38 ..\obj\stm32f10x_spi.o
 .text.SPI_TransmitCRC
                0x00000000       0x24 ..\obj\stm32f10x_spi.o
 .text.SPI_CalculateCRC
                0x00000000       0x40 ..\obj\stm32f10x_spi.o
 .text.SPI_GetCRC
                0x00000000       0x30 ..\obj\stm32f10x_spi.o
 .text.SPI_GetCRCPolynomial
                0x00000000       0x18 ..\obj\stm32f10x_spi.o
 .text.SPI_BiDirectionalLineConfig
                0x00000000       0x40 ..\obj\stm32f10x_spi.o
 .text.SPI_I2S_GetFlagStatus
                0x00000000       0x38 ..\obj\stm32f10x_spi.o
 .text.SPI_I2S_ClearFlag
                0x00000000       0x20 ..\obj\stm32f10x_spi.o
 .text.SPI_I2S_GetITStatus
                0x00000000       0x74 ..\obj\stm32f10x_spi.o
 .text.SPI_I2S_ClearITPendingBit
                0x00000000       0x34 ..\obj\stm32f10x_spi.o
 .debug_info    0x00000000      0x957 ..\obj\stm32f10x_spi.o
 .debug_abbrev  0x00000000      0x1b2 ..\obj\stm32f10x_spi.o
 .debug_aranges
                0x00000000       0xd0 ..\obj\stm32f10x_spi.o
 .debug_ranges  0x00000000       0xc0 ..\obj\stm32f10x_spi.o
 .debug_line    0x00000000      0x41e ..\obj\stm32f10x_spi.o
 .debug_str     0x00000000      0x645 ..\obj\stm32f10x_spi.o
 .comment       0x00000000       0x6f ..\obj\stm32f10x_spi.o
 .debug_frame   0x00000000      0x3a0 ..\obj\stm32f10x_spi.o
 .ARM.attributes
                0x00000000       0x33 ..\obj\stm32f10x_spi.o
 .text          0x00000000      0x424 c:/program files (x86)/gnu tools arm embedded/5.4 2016q3/bin/../lib/gcc/arm-none-eabi/5.4.1/armv7-m\libgcc.a(_arm_muldivdf3.o)
 .data          0x00000000        0x0 c:/program files (x86)/gnu tools arm embedded/5.4 2016q3/bin/../lib/gcc/arm-none-eabi/5.4.1/armv7-m\libgcc.a(_arm_muldivdf3.o)
 .bss           0x00000000        0x0 c:/program files (x86)/gnu tools arm embedded/5.4 2016q3/bin/../lib/gcc/arm-none-eabi/5.4.1/armv7-m\libgcc.a(_arm_muldivdf3.o)
 .ARM.attributes
                0x00000000       0x1d c:/program files (x86)/gnu tools arm embedded/5.4 2016q3/bin/../lib/gcc/arm-none-eabi/5.4.1/armv7-m\libgcc.a(_arm_muldivdf3.o)
 .text          0x00000000       0x40 c:/program files (x86)/gnu tools arm embedded/5.4 2016q3/bin/../lib/gcc/arm-none-eabi/5.4.1/armv7-m\libgcc.a(_arm_fixunsdfsi.o)
 .data          0x00000000        0x0 c:/program files (x86)/gnu tools arm embedded/5.4 2016q3/bin/../lib/gcc/arm-none-eabi/5.4.1/armv7-m\libgcc.a(_arm_fixunsdfsi.o)
 .bss           0x00000000        0x0 c:/program files (x86)/gnu tools arm embedded/5.4 2016q3/bin/../lib/gcc/arm-none-eabi/5.4.1/armv7-m\libgcc.a(_arm_fixunsdfsi.o)
 .ARM.attributes
                0x00000000       0x1d c:/program files (x86)/gnu tools arm embedded/5.4 2016q3/bin/../lib/gcc/arm-none-eabi/5.4.1/armv7-m\libgcc.a(_arm_fixunsdfsi.o)

Memory Configuration

Name             Origin             Length             Attributes
rom              0x08000000         0x00010000         xr
ram              0x20000000         0x00005000         xrw
*default*        0x00000000         0xffffffff

Linker script and memory map

                0x20005000                _eram = 0x20005000

.text           0x08000000     0x202f
 *(.isr_vector)
 .isr_vector    0x08000000      0x10c ..\obj\startup_stm32f10x_md.o
                0x08000000                g_pfnVectors
 *(.text*)
 .text.SystemInit
                0x0800010c       0x68 ..\obj\system_stm32f10x.o
                0x0800010c                SystemInit
 .text.SetSysClock
                0x08000174        0xc ..\obj\system_stm32f10x.o
 .text.SetSysClockTo72
                0x08000180      0x100 ..\obj\system_stm32f10x.o
 .text.lcd_delay
                0x08000280       0x24 ..\obj\hd44780_driver.o
                0x08000280                lcd_delay
 .text.lcd_init
                0x080002a4       0x58 ..\obj\hd44780_driver.o
                0x080002a4                lcd_init
 .text.lcd_set_xy
                0x080002fc       0x40 ..\obj\hd44780_driver.o
                0x080002fc                lcd_set_xy
 .text.lcd_out  0x0800033c       0x2c ..\obj\hd44780_driver.o
                0x0800033c                lcd_out
 .text.lcd_clear
                0x08000368       0x10 ..\obj\hd44780_driver.o
                0x08000368                lcd_clear
 .text.lcd_set_state
                0x08000378       0x64 ..\obj\hd44780_driver.o
                0x08000378                lcd_set_state
 .text.lcd_set_4bit_mode
                0x080003dc       0x80 ..\obj\hd44780_driver.o
                0x080003dc                lcd_set_4bit_mode
 .text.lcd_send
                0x0800045c       0xf0 ..\obj\hd44780_driver.o
                0x0800045c                lcd_send
 .text.lcd_out_char
                0x0800054c       0x18 ..\obj\hd44780_driver.o
                0x0800054c                lcd_out_char
 .text.lcd_out_number
                0x08000564       0xb0 ..\obj\hd44780_driver.o
                0x08000564                lcd_out_number
 .text.long_int_size
                0x08000614       0x40 ..\obj\hd44780_driver.o
                0x08000614                long_int_size
 .text.Default_Reset_Handler
                0x08000654       0x60 ..\obj\startup_stm32f10x_md.o
                0x08000654                Default_Reset_Handler
                0x08000654                Reset_Handler
 .text.Default_Handler
                0x080006b4       0x50 ..\obj\startup_stm32f10x_md.o
                0x080006b4                EXTI2_IRQHandler
                0x080006b4                DebugMon_Handler
                0x080006b4                TIM1_CC_IRQHandler
                0x080006b4                HardFault_Handler
                0x080006b4                PVD_IRQHandler
                0x080006b4                PendSV_Handler
                0x080006b4                NMI_Handler
                0x080006b4                EXTI3_IRQHandler
                0x080006b4                EXTI0_IRQHandler
                0x080006b4                I2C2_EV_IRQHandler
                0x080006b4                UsageFault_Handler
                0x080006b4                ADC1_2_IRQHandler
                0x080006b4                SPI1_IRQHandler
                0x080006b4                TAMPER_IRQHandler
                0x080006b4                DMA1_Channel4_IRQHandler
                0x080006b4                USART3_IRQHandler
                0x080006b4                RTC_IRQHandler
                0x080006b4                DMA1_Channel7_IRQHandler
                0x080006b4                CAN1_RX1_IRQHandler
                0x080006b4                TIM4_IRQHandler
                0x080006b4                I2C1_EV_IRQHandler
                0x080006b4                DMA1_Channel6_IRQHandler
                0x080006b4                TIM3_IRQHandler
                0x080006b4                RCC_IRQHandler
                0x080006b4                TIM1_TRG_COM_IRQHandler
                0x080006b4                DMA1_Channel1_IRQHandler
                0x080006b4                EXTI15_10_IRQHandler
                0x080006b4                EXTI9_5_IRQHandler
                0x080006b4                SPI2_IRQHandler
                0x080006b4                MemManage_Handler
                0x080006b4                SVC_Handler
                0x080006b4                DMA1_Channel5_IRQHandler
                0x080006b4                EXTI4_IRQHandler
                0x080006b4                USB_LP_CAN1_RX0_IRQHandler
                0x080006b4                USB_HP_CAN1_TX_IRQHandler
                0x080006b4                DMA1_Channel3_IRQHandler
                0x080006b4                TIM1_UP_IRQHandler
                0x080006b4                WWDG_IRQHandler
                0x080006b4                TIM2_IRQHandler
                0x080006b4                TIM1_BRK_IRQHandler
                0x080006b4                EXTI1_IRQHandler
                0x080006b4                RTCAlarm_IRQHandler
                0x080006b4                USART2_IRQHandler
                0x080006b4                I2C2_ER_IRQHandler
                0x080006b4                DMA1_Channel2_IRQHandler
                0x080006b4                CAN1_SCE_IRQHandler
                0x080006b4                FLASH_IRQHandler
                0x080006b4                BusFault_Handler
                0x080006b4                USART1_IRQHandler
                0x080006b4                I2C1_ER_IRQHandler
                0x080006b4                USBWakeUp_IRQHandler
 .text.GPIO_Init
                0x08000704      0x178 ..\obj\stm32f10x_gpio.o
                0x08000704                GPIO_Init
 .text.GPIO_ReadInputDataBit
                0x0800087c       0x3c ..\obj\stm32f10x_gpio.o
                0x0800087c                GPIO_ReadInputDataBit
 .text.NVIC_EnableIRQ
                0x080008b8       0x30 ..\obj\main.o
 .text.NVIC_SetPriority
                0x080008e8       0x54 ..\obj\main.o
 .text.SysTick_Config
                0x0800093c       0x44 ..\obj\main.o
 .text.main     0x08000980      0x198 ..\obj\main.o
                0x08000980                main
 .text.RCC_Config
                0x08000b18       0xcc ..\obj\main.o
                0x08000b18                RCC_Config
 .text.GPIO_Config
                0x08000be4       0x2c ..\obj\main.o
                0x08000be4                GPIO_Config
 .text.ADC_Config
                0x08000c10       0xb4 ..\obj\main.o
                0x08000c10                ADC_Config
 .text.NVIC_Configuration
                0x08000cc4       0x2c ..\obj\main.o
                0x08000cc4                NVIC_Configuration
 .text.RCC_DeInit
                0x08000cf0       0x5c ..\obj\stm32f10x_rcc.o
                0x08000cf0                RCC_DeInit
 .text.RCC_HSEConfig
                0x08000d4c       0x5c ..\obj\stm32f10x_rcc.o
                0x08000d4c                RCC_HSEConfig
 .text.RCC_WaitForHSEStartUp
                0x08000da8       0x50 ..\obj\stm32f10x_rcc.o
                0x08000da8                RCC_WaitForHSEStartUp
 .text.RCC_PLLConfig
                0x08000df8       0x3c ..\obj\stm32f10x_rcc.o
                0x08000df8                RCC_PLLConfig
 .text.RCC_PLLCmd
                0x08000e34       0x20 ..\obj\stm32f10x_rcc.o
                0x08000e34                RCC_PLLCmd
 .text.RCC_SYSCLKConfig
                0x08000e54       0x38 ..\obj\stm32f10x_rcc.o
                0x08000e54                RCC_SYSCLKConfig
 .text.RCC_GetSYSCLKSource
                0x08000e8c       0x1c ..\obj\stm32f10x_rcc.o
                0x08000e8c                RCC_GetSYSCLKSource
 .text.RCC_HCLKConfig
                0x08000ea8       0x38 ..\obj\stm32f10x_rcc.o
                0x08000ea8                RCC_HCLKConfig
 .text.RCC_PCLK1Config
                0x08000ee0       0x38 ..\obj\stm32f10x_rcc.o
                0x08000ee0                RCC_PCLK1Config
 .text.RCC_PCLK2Config
                0x08000f18       0x38 ..\obj\stm32f10x_rcc.o
                0x08000f18                RCC_PCLK2Config
 .text.RCC_ADCCLKConfig
                0x08000f50       0x38 ..\obj\stm32f10x_rcc.o
                0x08000f50                RCC_ADCCLKConfig
 .text.RCC_GetClocksFreq
                0x08000f88      0x160 ..\obj\stm32f10x_rcc.o
                0x08000f88                RCC_GetClocksFreq
 .text.RCC_APB2PeriphClockCmd
                0x080010e8       0x3c ..\obj\stm32f10x_rcc.o
                0x080010e8                RCC_APB2PeriphClockCmd
 .text.RCC_ClockSecuritySystemCmd
                0x08001124       0x20 ..\obj\stm32f10x_rcc.o
                0x08001124                RCC_ClockSecuritySystemCmd
 .text.RCC_GetFlagStatus
                0x08001144       0x74 ..\obj\stm32f10x_rcc.o
                0x08001144                RCC_GetFlagStatus
 .text.ADC_Init
                0x080011b8       0xa4 ..\obj\stm32f10x_adc.o
                0x080011b8                ADC_Init
 .text.ADC_StructInit
                0x0800125c       0x38 ..\obj\stm32f10x_adc.o
                0x0800125c                ADC_StructInit
 .text.ADC_Cmd  0x08001294       0x38 ..\obj\stm32f10x_adc.o
                0x08001294                ADC_Cmd
 .text.ADC_ResetCalibration
                0x080012cc       0x20 ..\obj\stm32f10x_adc.o
                0x080012cc                ADC_ResetCalibration
 .text.ADC_GetResetCalibrationStatus
                0x080012ec       0x30 ..\obj\stm32f10x_adc.o
                0x080012ec                ADC_GetResetCalibrationStatus
 .text.ADC_StartCalibration
                0x0800131c       0x20 ..\obj\stm32f10x_adc.o
                0x0800131c                ADC_StartCalibration
 .text.ADC_GetCalibrationStatus
                0x0800133c       0x30 ..\obj\stm32f10x_adc.o
                0x0800133c                ADC_GetCalibrationStatus
 .text.ADC_RegularChannelConfig
                0x0800136c      0x194 ..\obj\stm32f10x_adc.o
                0x0800136c                ADC_RegularChannelConfig
 .text.menu_1   0x08001500      0x204 ..\obj\menu.o
                0x08001500                menu_1
 .text.mode_open
                0x08001704       0x50 ..\obj\mode.o
                0x08001704                mode_open
 .text.mode_short
                0x08001754       0x48 ..\obj\mode.o
                0x08001754                mode_short
 .text.adjust   0x0800179c      0x63c ..\obj\mode.o
                0x0800179c                adjust
 .text.SysTick_Handler
                0x08001dd8       0x1c ..\obj\delay_.o
                0x08001dd8                SysTick_Handler
 .text.delay_us
                0x08001df4       0x38 ..\obj\delay_.o
                0x08001df4                delay_us
 *(.init)
 *(.fini)
 *crtbegin.o(.ctors)
 *crtbegin?.o(.ctors)
 *(EXCLUDE_FILE(*crtend.o *crtend?.o) .ctors)
 *(SORT(.ctors.*))
 *(.ctors)
 *crtbegin.o(.dtors)
 *crtbegin?.o(.dtors)
 *(EXCLUDE_FILE(*crtend.o *crtend?.o) .dtors)
 *(SORT(.dtors.*))
 *(.dtors)
 *(.rodata*)
 .rodata        0x08001e2c       0x25 ..\obj\startup_stm32f10x_md.o
 *fill*         0x08001e51        0x3 
 .rodata        0x08001e54       0x78 ..\obj\main.o
 .rodata        0x08001ecc       0x54 ..\obj\menu.o
 .rodata        0x08001f20      0x10f ..\obj\mode.o
 *(.eh_fram e*)

.glue_7         0x08002030        0x0
 .glue_7        0x08002030        0x0 linker stubs

.glue_7t        0x08002030        0x0
 .glue_7t       0x08002030        0x0 linker stubs

.vfp11_veneer   0x08002030        0x0
 .vfp11_veneer  0x08002030        0x0 linker stubs

.v4_bx          0x08002030        0x0
 .v4_bx         0x08002030        0x0 linker stubs

.iplt           0x08002030        0x0
 .iplt          0x08002030        0x0 ..\obj\stm32f10x_tim.o

.rel.dyn        0x08002030        0x0
 .rel.iplt      0x08002030        0x0 ..\obj\stm32f10x_tim.o

.ARM.extab
 *(.ARM.extab* .gnu.linkonce.armextab.*)
                0x08002030                __exidx_start = .

.ARM.exidx
 *(.ARM.exidx* .gnu.linkonce.armexidx.*)
                0x08002030                __exidx_end = .
                0x08002030                __etext = .
                0x0800202f                _sidata = __etext

.data           0x20000000       0x14 load address 0x0800202f
                0x20000000                __data_start__ = .
                0x20000000                _sdata = __data_start__
 *(vtable)
 *(.data*)
 .data          0x20000000       0x14 ..\obj\stm32f10x_rcc.o
                0x20000014                . = ALIGN (0x4)
                [!provide]                PROVIDE (__preinit_array_start, .)
 *(.preinit_array)
                [!provide]                PROVIDE (__preinit_array_end, .)
                0x20000014                . = ALIGN (0x4)
                [!provide]                PROVIDE (__init_array_start, .)
 *(SORT(.init_array.*))
 *(.init_array)
                [!provide]                PROVIDE (__init_array_end, .)
                0x20000014                . = ALIGN (0x4)
                [!provide]                PROVIDE (__fini_array_start, .)
 *(SORT(.fini_array.*))
 *(.fini_array)
                [!provide]                PROVIDE (__fini_array_end, .)
 *(.jcr*)
                0x20000014                . = ALIGN (0x4)
                0x20000014                __data_end__ = .
                0x20000014                _edata = __data_end__

.igot.plt       0x20000014        0x0 load address 0x08002044
 .igot.plt      0x20000014        0x0 ..\obj\stm32f10x_tim.o

.bss            0x20000014      0xdf0 load address 0x08002044
                0x20000014                . = ALIGN (0x4)
                0x20000014                __bss_start__ = .
                0x20000014                _sbss = __bss_start__
 *(.bss*)
 *(COMMON)
 COMMON         0x20000014        0x4 ..\obj\startup_stm32f10x_md.o
                0x20000014                delay_value
 COMMON         0x20000018      0xde9 ..\obj\main.o
                0x20000018                GPIO_Config_port_mux
                0x2000001c                ADC_CH_STATE
                0x20000020                XW8_250_09_16
                0x20000140                CHANAL
                0x20000164                array_chek
                0x200003ec                type_test_signal
                0x200003f0                address
                0x200003f4                counter_receive
                0x200003f8                PORT_CHANAL
                0x20000440                numb_bits
                0x20000441                counter_chanall
                0x20000442                address_fragment
                0x20000444                adc_level_add
                0x20000448                options
                0x20000458                ADC_InitStructure
                0x2000046c                matrix_for_validation
                0x2000046d                source_clk
                0x20000470                PORT_ADC
                0x200004b8                DATA_READ
                0x200004bc                adc_chek
                0x20000744                number_of_channels
                0x20000745                HSE_ON
                0x20000746                mode_combo_number
                0x20000747                address_column
                0x20000748                RCC_value
                0x2000075c                GPIO_Config_port_out
                0x20000760                GPIO_Config_port_in
                0x20000764                USART3_buffer
                0x20000b4c                number_repetitions_regime_open
                0x20000b50                ADC_CHANALL
                0x20000b5c                array_error
                0x20000de4                pin_null
                0x20000de8                ADC_CHANALL_PIN
                0x20000dfe                set_option_push
                0x20000dff                counter_array_chek
                0x20000e00                PLL_ON
                0x20000e04                . = ALIGN (0x4)
 *fill*         0x20000e01        0x3 
                0x20000e04                __bss_end__ = .
                0x20000e04                _ebss = __bss_end__

.heap           0x20000e04        0x0
                0x20000e04                __end__ = .
                0x20000e04                _end = __end__
                0x20000e04                end = __end__
 *(.heap*)
                0x20000e04                __HeapLimit = .

.co_stack       0x20000e04      0x404 load address 0x08002e34
                0x20000e08                . = ALIGN (0x8)
 *fill*         0x20000e04        0x4 
 *(.co_stack .co_stack.*)
 .co_stack      0x20000e08      0x400 ..\obj\startup_stm32f10x_md.o
                0x20000e08                pulStack
                0x20005000                __StackTop = (ORIGIN (ram) + LENGTH (ram))
                0x20004bfc                __StackLimit = (__StackTop - SIZEOF (.co_stack))
                [!provide]                PROVIDE (__stack, __StackTop)
                0x00000001                ASSERT ((__StackLimit >= __HeapLimit), region ram  overflowed with stack)
LOAD ..\obj\stm32f10x_tim.o
LOAD ..\obj\system_stm32f10x.o
LOAD ..\obj\hd44780_driver.o
LOAD ..\obj\startup_stm32f10x_md.o
LOAD ..\obj\stm32f10x_gpio.o
LOAD ..\obj\main.o
LOAD ..\obj\stm32f10x_rcc.o
LOAD ..\obj\DDS.o
LOAD ..\obj\stm32f10x_adc.o
LOAD ..\obj\stm32f10x_usart.o
LOAD ..\obj\menu.o
LOAD ..\obj\mode.o
LOAD ..\obj\syscalls.o
LOAD ..\obj\delay_.o
LOAD ..\obj\match.o
LOAD ..\obj\misc.o
LOAD ..\obj\stm32f10x_spi.o
LOAD c:/program files (x86)/gnu tools arm embedded/5.4 2016q3/bin/../lib/gcc/arm-none-eabi/5.4.1/../../../../arm-none-eabi/lib/armv7-m\libm.a
LOAD c:/program files (x86)/gnu tools arm embedded/5.4 2016q3/bin/../lib/gcc/arm-none-eabi/5.4.1/armv7-m\libgcc.a
LOAD c:/program files (x86)/gnu tools arm embedded/5.4 2016q3/bin/../lib/gcc/arm-none-eabi/5.4.1/../../../../arm-none-eabi/lib/armv7-m\libc.a
START GROUP
LOAD c:/program files (x86)/gnu tools arm embedded/5.4 2016q3/bin/../lib/gcc/arm-none-eabi/5.4.1/armv7-m\libgcc.a
LOAD c:/program files (x86)/gnu tools arm embedded/5.4 2016q3/bin/../lib/gcc/arm-none-eabi/5.4.1/../../../../arm-none-eabi/lib/armv7-m\libg.a
LOAD c:/program files (x86)/gnu tools arm embedded/5.4 2016q3/bin/../lib/gcc/arm-none-eabi/5.4.1/../../../../arm-none-eabi/lib/armv7-m\libc.a
END GROUP
OUTPUT(STM32F103ZET6.elf elf32-littlearm)

.debug_info     0x00000000     0x40a8
 .debug_info    0x00000000      0x4f8 ..\obj\system_stm32f10x.o
 .debug_info    0x000004f8      0x46b ..\obj\hd44780_driver.o
 .debug_info    0x00000963      0x204 ..\obj\startup_stm32f10x_md.o
 .debug_info    0x00000b67      0x761 ..\obj\stm32f10x_gpio.o
 .debug_info    0x000012c8      0xecb ..\obj\main.o
 .debug_info    0x00002193      0x8ff ..\obj\stm32f10x_rcc.o
 .debug_info    0x00002a92      0xbd8 ..\obj\stm32f10x_adc.o
 .debug_info    0x0000366a      0x20d ..\obj\menu.o
 .debug_info    0x00003877      0x679 ..\obj\mode.o
 .debug_info    0x00003ef0      0x1b8 ..\obj\delay_.o

.debug_abbrev   0x00000000      0xf75
 .debug_abbrev  0x00000000      0x16e ..\obj\system_stm32f10x.o
 .debug_abbrev  0x0000016e      0x192 ..\obj\hd44780_driver.o
 .debug_abbrev  0x00000300      0x117 ..\obj\startup_stm32f10x_md.o
 .debug_abbrev  0x00000417      0x1ec ..\obj\stm32f10x_gpio.o
 .debug_abbrev  0x00000603      0x210 ..\obj\main.o
 .debug_abbrev  0x00000813      0x1dc ..\obj\stm32f10x_rcc.o
 .debug_abbrev  0x000009ef      0x1cc ..\obj\stm32f10x_adc.o
 .debug_abbrev  0x00000bbb       0xf3 ..\obj\menu.o
 .debug_abbrev  0x00000cae      0x1b7 ..\obj\mode.o
 .debug_abbrev  0x00000e65      0x110 ..\obj\delay_.o

.debug_aranges  0x00000000      0x4b0
 .debug_aranges
                0x00000000       0x38 ..\obj\system_stm32f10x.o
 .debug_aranges
                0x00000038       0x78 ..\obj\hd44780_driver.o
 .debug_aranges
                0x000000b0       0x28 ..\obj\startup_stm32f10x_md.o
 .debug_aranges
                0x000000d8       0xa8 ..\obj\stm32f10x_gpio.o
 .debug_aranges
                0x00000180       0x60 ..\obj\main.o
 .debug_aranges
                0x000001e0      0x118 ..\obj\stm32f10x_rcc.o
 .debug_aranges
                0x000002f8      0x138 ..\obj\stm32f10x_adc.o
 .debug_aranges
                0x00000430       0x20 ..\obj\menu.o
 .debug_aranges
                0x00000450       0x38 ..\obj\mode.o
 .debug_aranges
                0x00000488       0x28 ..\obj\delay_.o

.debug_ranges   0x00000000      0x410
 .debug_ranges  0x00000000       0x28 ..\obj\system_stm32f10x.o
 .debug_ranges  0x00000028       0x68 ..\obj\hd44780_driver.o
 .debug_ranges  0x00000090       0x18 ..\obj\startup_stm32f10x_md.o
 .debug_ranges  0x000000a8       0x98 ..\obj\stm32f10x_gpio.o
 .debug_ranges  0x00000140       0x50 ..\obj\main.o
 .debug_ranges  0x00000190      0x108 ..\obj\stm32f10x_rcc.o
 .debug_ranges  0x00000298      0x128 ..\obj\stm32f10x_adc.o
 .debug_ranges  0x000003c0       0x10 ..\obj\menu.o
 .debug_ranges  0x000003d0       0x28 ..\obj\mode.o
 .debug_ranges  0x000003f8       0x18 ..\obj\delay_.o

.debug_line     0x00000000     0x2039
 .debug_line    0x00000000      0x24c ..\obj\system_stm32f10x.o
 .debug_line    0x0000024c      0x32f ..\obj\hd44780_driver.o
 .debug_line    0x0000057b      0x203 ..\obj\startup_stm32f10x_md.o
 .debug_line    0x0000077e      0x3c3 ..\obj\stm32f10x_gpio.o
 .debug_line    0x00000b41      0x34a ..\obj\main.o
 .debug_line    0x00000e8b      0x4bc ..\obj\stm32f10x_rcc.o
 .debug_line    0x00001347      0x52b ..\obj\stm32f10x_adc.o
 .debug_line    0x00001872      0x23c ..\obj\menu.o
 .debug_line    0x00001aae      0x3d3 ..\obj\mode.o
 .debug_line    0x00001e81      0x1b8 ..\obj\delay_.o

.debug_str      0x00000000     0x1998
 .debug_str     0x00000000      0x2c8 ..\obj\system_stm32f10x.o
                                0x337 (size before relaxing)
 .debug_str     0x000002c8      0x1c8 ..\obj\hd44780_driver.o
                                0x38c (size before relaxing)
 .debug_str     0x00000490       0xb2 ..\obj\startup_stm32f10x_md.o
                                0x24c (size before relaxing)
 .debug_str     0x00000542      0x38c ..\obj\stm32f10x_gpio.o
                                0x568 (size before relaxing)
 .debug_str     0x000008ce      0x7f6 ..\obj\main.o
                                0xb7a (size before relaxing)
 .debug_str     0x000010c4      0x361 ..\obj\stm32f10x_rcc.o
                                0x662 (size before relaxing)
 .debug_str     0x00001425      0x469 ..\obj\stm32f10x_adc.o
                                0x743 (size before relaxing)
 .debug_str     0x0000188e       0x5b ..\obj\menu.o
                                0x22f (size before relaxing)
 .debug_str     0x000018e9       0x66 ..\obj\mode.o
                                0x5cc (size before relaxing)
 .debug_str     0x0000194f       0x49 ..\obj\delay_.o
                                0x20c (size before relaxing)

.comment        0x00000000       0x6e
 .comment       0x00000000       0x6e ..\obj\system_stm32f10x.o
                                 0x6f (size before relaxing)
 .comment       0x0000006e       0x6f ..\obj\hd44780_driver.o
 .comment       0x0000006e       0x6f ..\obj\startup_stm32f10x_md.o
 .comment       0x0000006e       0x6f ..\obj\stm32f10x_gpio.o
 .comment       0x0000006e       0x6f ..\obj\main.o
 .comment       0x0000006e       0x6f ..\obj\stm32f10x_rcc.o
 .comment       0x0000006e       0x6f ..\obj\stm32f10x_adc.o
 .comment       0x0000006e       0x6f ..\obj\menu.o
 .comment       0x0000006e       0x6f ..\obj\mode.o
 .comment       0x0000006e       0x6f ..\obj\delay_.o

.ARM.attributes
                0x00000000       0x33
 .ARM.attributes
                0x00000000       0x33 ..\obj\system_stm32f10x.o
 .ARM.attributes
                0x00000033       0x33 ..\obj\hd44780_driver.o
 .ARM.attributes
                0x00000066       0x33 ..\obj\startup_stm32f10x_md.o
 .ARM.attributes
                0x00000099       0x33 ..\obj\stm32f10x_gpio.o
 .ARM.attributes
                0x000000cc       0x33 ..\obj\main.o
 .ARM.attributes
                0x000000ff       0x33 ..\obj\stm32f10x_rcc.o
 .ARM.attributes
                0x00000132       0x33 ..\obj\stm32f10x_adc.o
 .ARM.attributes
                0x00000165       0x33 ..\obj\menu.o
 .ARM.attributes
                0x00000198       0x33 ..\obj\mode.o
 .ARM.attributes
                0x000001cb       0x33 ..\obj\delay_.o

.debug_frame    0x00000000     0x1270
 .debug_frame   0x00000000       0x98 ..\obj\system_stm32f10x.o
 .debug_frame   0x00000098      0x1b0 ..\obj\hd44780_driver.o
 .debug_frame   0x00000248       0x54 ..\obj\startup_stm32f10x_md.o
 .debug_frame   0x0000029c      0x2d0 ..\obj\stm32f10x_gpio.o
 .debug_frame   0x0000056c      0x148 ..\obj\main.o
 .debug_frame   0x000006b4      0x4f4 ..\obj\stm32f10x_rcc.o
 .debug_frame   0x00000ba8      0x5a4 ..\obj\stm32f10x_adc.o
 .debug_frame   0x0000114c       0x34 ..\obj\menu.o
 .debug_frame   0x00001180       0x98 ..\obj\mode.o
 .debug_frame   0x00001218       0x58 ..\obj\delay_.o
